target datalayout = "e-m:e-p270:32:32-p271:32:32-p272:64:64-i64:64-i128:128-f80:128-n8:16:32:64-S128"
target triple = "x86_64-pc-linux-gnu"

%struct.Inter_Check_t_ = type { i32, i32, ptr, ptr, ptr, ptr, ptr, ptr }

; Function Attrs: inlinehint nounwind uwtable
define internal i32 @toLitCond(i32 noundef %0, i32 noundef %1) #3 {
  %3 = alloca i32, align 4
  %4 = alloca i32, align 4
  store i32 %0, ptr %3, align 4, !tbaa !8
  store i32 %1, ptr %4, align 4, !tbaa !8
  %5 = load i32, ptr %3, align 4, !tbaa !8
  %6 = load i32, ptr %3, align 4, !tbaa !8
  %7 = add nsw i32 %5, %6
  %8 = load i32, ptr %4, align 4, !tbaa !8
  %9 = icmp ne i32 %8, 0
  %10 = zext i1 %9 to i32
  %11 = add nsw i32 %7, %10
  ret i32 %11
}

; Function Attrs: nounwind uwtable
define void @Inter_CheckAddOrGate(ptr noundef %0, i32 noundef %1, i32 noundef %2, i32 noundef %3) #0 {
  %5 = alloca ptr, align 8
  %6 = alloca i32, align 4
  %7 = alloca i32, align 4
  %8 = alloca i32, align 4
  %9 = alloca i32, align 4
  %10 = alloca [3 x i32], align 4
  store ptr %0, ptr %5, align 8, !tbaa !43
  store i32 %1, ptr %6, align 4, !tbaa !8
  store i32 %2, ptr %7, align 4, !tbaa !8
  store i32 %3, ptr %8, align 4, !tbaa !8
  call void @llvm.lifetime.start.p0(i64 4, ptr %9) #8
  call void @llvm.lifetime.start.p0(i64 12, ptr %10) #8
  %11 = load i32, ptr %6, align 4, !tbaa !8
  %12 = call i32 @toLitCond(i32 noundef %11, i32 noundef 1)
  %13 = getelementptr inbounds [3 x i32], ptr %10, i64 0, i64 0
  store i32 %12, ptr %13, align 4, !tbaa !8
  %14 = load i32, ptr %8, align 4, !tbaa !8
  %15 = call i32 @toLitCond(i32 noundef %14, i32 noundef 0)
  %16 = getelementptr inbounds [3 x i32], ptr %10, i64 0, i64 1
  store i32 %15, ptr %16, align 4, !tbaa !8
  %17 = load ptr, ptr %5, align 8, !tbaa !43
  %18 = getelementptr inbounds nuw %struct.Inter_Check_t_, ptr %17, i32 0, i32 4
  %19 = load ptr, ptr %18, align 8, !tbaa !53
  %20 = getelementptr inbounds [3 x i32], ptr %10, i64 0, i64 0
  %21 = getelementptr inbounds [3 x i32], ptr %10, i64 0, i64 0
  %22 = getelementptr inbounds i32, ptr %21, i64 2
  %23 = call i32 @sat_solver_addclause(ptr noundef %19, ptr noundef %20, ptr noundef %22)
  store i32 %23, ptr %9, align 4, !tbaa !8
  %24 = load i32, ptr %7, align 4, !tbaa !8
  %25 = call i32 @toLitCond(i32 noundef %24, i32 noundef 1)
  %26 = getelementptr inbounds [3 x i32], ptr %10, i64 0, i64 0
  store i32 %25, ptr %26, align 4, !tbaa !8
  %27 = load i32, ptr %8, align 4, !tbaa !8
  %28 = call i32 @toLitCond(i32 noundef %27, i32 noundef 0)
  %29 = getelementptr inbounds [3 x i32], ptr %10, i64 0, i64 1
  store i32 %28, ptr %29, align 4, !tbaa !8
  %30 = load ptr, ptr %5, align 8, !tbaa !43
  %31 = getelementptr inbounds nuw %struct.Inter_Check_t_, ptr %30, i32 0, i32 4
  %32 = load ptr, ptr %31, align 8, !tbaa !53
  %33 = getelementptr inbounds [3 x i32], ptr %10, i64 0, i64 0
  %34 = getelementptr inbounds [3 x i32], ptr %10, i64 0, i64 0
  %35 = getelementptr inbounds i32, ptr %34, i64 2
  %36 = call i32 @sat_solver_addclause(ptr noundef %32, ptr noundef %33, ptr noundef %35)
  store i32 %36, ptr %9, align 4, !tbaa !8
  %37 = load i32, ptr %6, align 4, !tbaa !8
  %38 = call i32 @toLitCond(i32 noundef %37, i32 noundef 0)
  %39 = getelementptr inbounds [3 x i32], ptr %10, i64 0, i64 0
  store i32 %38, ptr %39, align 4, !tbaa !8
  %40 = load i32, ptr %7, align 4, !tbaa !8
  %41 = call i32 @toLitCond(i32 noundef %40, i32 noundef 0)
  %42 = getelementptr inbounds [3 x i32], ptr %10, i64 0, i64 1
  store i32 %41, ptr %42, align 4, !tbaa !8
  %43 = load i32, ptr %8, align 4, !tbaa !8
  %44 = call i32 @toLitCond(i32 noundef %43, i32 noundef 1)
  %45 = getelementptr inbounds [3 x i32], ptr %10, i64 0, i64 2
  store i32 %44, ptr %45, align 4, !tbaa !8
  %46 = load ptr, ptr %5, align 8, !tbaa !43
  %47 = getelementptr inbounds nuw %struct.Inter_Check_t_, ptr %46, i32 0, i32 4
  %48 = load ptr, ptr %47, align 8, !tbaa !53
  %49 = getelementptr inbounds [3 x i32], ptr %10, i64 0, i64 0
  %50 = getelementptr inbounds [3 x i32], ptr %10, i64 0, i64 0
  %51 = getelementptr inbounds i32, ptr %50, i64 3
  %52 = call i32 @sat_solver_addclause(ptr noundef %48, ptr noundef %49, ptr noundef %51)
  store i32 %52, ptr %9, align 4, !tbaa !8
  call void @llvm.lifetime.end.p0(i64 12, ptr %10) #8
  call void @llvm.lifetime.end.p0(i64 4, ptr %9) #8
  ret void
}