; Function Attrs: nounwind uwtable
define void @Inter_CheckAddOrGate(ptr noundef readonly captures(none) %0, i32 noundef %1, i32 noundef %2, i32 noundef %3) local_unnamed_addr #0 {
  %5 = alloca [3 x i32], align 4
  call void @llvm.lifetime.start.p0(i64 12, ptr nonnull %5) #7
  %6 = shl nsw i32 %1, 1
  %7 = or disjoint i32 %6, 1
  store i32 %7, ptr %5, align 4, !tbaa !3
  %8 = shl nsw i32 %3, 1
  %9 = getelementptr inbounds nuw i8, ptr %5, i64 4
  store i32 %8, ptr %9, align 4, !tbaa !3
  %10 = getelementptr inbounds nuw i8, ptr %0, i64 24
  %11 = load ptr, ptr %10, align 8, !tbaa !54
  %12 = getelementptr inbounds nuw i8, ptr %5, i64 8
  %13 = call i32 @sat_solver_addclause(ptr noundef %11, ptr noundef nonnull %5, ptr noundef nonnull %12) #7
  %14 = shl nsw i32 %2, 1
  %15 = or disjoint i32 %14, 1
  store i32 %15, ptr %5, align 4, !tbaa !3
  store i32 %8, ptr %9, align 4, !tbaa !3
  %16 = load ptr, ptr %10, align 8, !tbaa !54
  %17 = call i32 @sat_solver_addclause(ptr noundef %16, ptr noundef nonnull %5, ptr noundef nonnull %12) #7
  store i32 %6, ptr %5, align 4, !tbaa !3
  store i32 %14, ptr %9, align 4, !tbaa !3
  %18 = or disjoint i32 %8, 1
  store i32 %18, ptr %12, align 4, !tbaa !3
  %19 = load ptr, ptr %10, align 8, !tbaa !54
  %20 = getelementptr inbounds nuw i8, ptr %5, i64 12
  %21 = call i32 @sat_solver_addclause(ptr noundef %19, ptr noundef nonnull %5, ptr noundef nonnull %20) #7
  call void @llvm.lifetime.end.p0(i64 12, ptr nonnull %5) #7
  ret void
}